target datalayout = "e-m:e-p270:32:32-p271:32:32-p272:64:64-i64:64-i128:128-f80:128-n8:16:32:64-S128"
target triple = "x86_64-pc-linux-gnu"

%struct.Dl_info = type { ptr, ptr, ptr, ptr }

@.str.46 = private unnamed_addr constant [3 x i8] c"%s\00", align 1
@_ZL14saved_jvm_path = internal global [4096 x i8] zeroinitializer, align 16
@.str.179 = private unnamed_addr constant [10 x i8] c"/jre/lib/\00", align 1
@.str.180 = private unnamed_addr constant [10 x i8] c"JAVA_HOME\00", align 1
@.str.181 = private unnamed_addr constant [9 x i8] c"/jre/lib\00", align 1
@.str.182 = private unnamed_addr constant [5 x i8] c"/lib\00", align 1
@.str.183 = private unnamed_addr constant [19 x i8] c"/hotspot/libjvm.so\00", align 1

; Function Attrs: mustprogress nounwind uwtable
define linkonce_odr hidden noundef i64 @_Z13pointer_deltaPVKvS0_m(ptr noundef %0, ptr noundef %1, i64 noundef %2) #1 comdat {
  %4 = alloca ptr, align 8
  %5 = alloca ptr, align 8
  %6 = alloca i64, align 8
  store ptr %0, ptr %4, align 8
  store ptr %1, ptr %5, align 8
  store i64 %2, ptr %6, align 8
  %7 = load ptr, ptr %4, align 8
  %8 = ptrtoint ptr %7 to i64
  %9 = load ptr, ptr %5, align 8
  %10 = ptrtoint ptr %9 to i64
  %11 = sub i64 %8, %10
  %12 = load i64, ptr %6, align 8
  %13 = udiv i64 %11, %12
  ret i64 %13
}

; Function Attrs: mustprogress nounwind uwtable
define linkonce_odr hidden noundef i32 @_Z20pointer_delta_as_intIhEiPVKT_S2_(ptr noundef %0, ptr noundef %1) #1 comdat {
  %3 = alloca ptr, align 8
  %4 = alloca ptr, align 8
  %5 = alloca i64, align 8
  store ptr %0, ptr %3, align 8
  store ptr %1, ptr %4, align 8
  %6 = load ptr, ptr %3, align 8
  %7 = load ptr, ptr %4, align 8
  %8 = call noundef i64 @_Z13pointer_deltaPVKvS0_m(ptr noundef %6, ptr noundef %7, i64 noundef 1)
  store i64 %8, ptr %5, align 8
  %9 = load i64, ptr %5, align 8
  %10 = trunc i64 %9 to i32
  ret i32 %10
}

; Function Attrs: mustprogress nounwind uwtable
define linkonce_odr hidden noundef i32 @_Z12checked_castIimET_T0_(i64 noundef %0) #1 comdat {
  %2 = alloca i64, align 8
  %3 = alloca i32, align 4
  store i64 %0, ptr %2, align 8
  %4 = load i64, ptr %2, align 8
  %5 = trunc i64 %4 to i32
  store i32 %5, ptr %3, align 4
  %6 = load i32, ptr %3, align 4
  ret i32 %6
}

; Function Attrs: mustprogress nounwind uwtable
define hidden noundef zeroext i1 @_ZN2os27dll_address_to_library_nameEPhPciPi(ptr noundef %0, ptr noundef %1, i32 noundef %2, ptr noundef %3) #1 align 2 {
  %5 = alloca i1, align 1
  %6 = alloca ptr, align 8
  %7 = alloca ptr, align 8
  %8 = alloca i32, align 4
  %9 = alloca ptr, align 8
  %10 = alloca %struct.Dl_info, align 8
  store ptr %0, ptr %6, align 8
  store ptr %1, ptr %7, align 8
  store i32 %2, ptr %8, align 4
  store ptr %3, ptr %9, align 8
  %11 = load ptr, ptr %6, align 8
  %12 = call i32 @dladdr(ptr noundef %11, ptr noundef %10) #12
  %13 = icmp ne i32 %12, 0
  br i1 %13, label %14, label %39

14:                                               ; preds = %4
  %15 = getelementptr inbounds %struct.Dl_info, ptr %10, i32 0, i32 0
  %16 = load ptr, ptr %15, align 8
  %17 = icmp ne ptr %16, null
  br i1 %17, label %18, label %25

18:                                               ; preds = %14
  %19 = load ptr, ptr %7, align 8
  %20 = load i32, ptr %8, align 4
  %21 = sext i32 %20 to i64
  %22 = getelementptr inbounds %struct.Dl_info, ptr %10, i32 0, i32 0
  %23 = load ptr, ptr %22, align 8
  %24 = call i32 (ptr, i64, ptr, ...) @jio_snprintf(ptr noundef %19, i64 noundef %21, ptr noundef @.str.46, ptr noundef %23)
  br label %25

25:                                               ; preds = %18, %14
  %26 = getelementptr inbounds %struct.Dl_info, ptr %10, i32 0, i32 1
  %27 = load ptr, ptr %26, align 8
  %28 = icmp ne ptr %27, null
  br i1 %28, label %29, label %38

29:                                               ; preds = %25
  %30 = load ptr, ptr %9, align 8
  %31 = icmp ne ptr %30, null
  br i1 %31, label %32, label %38

32:                                               ; preds = %29
  %33 = load ptr, ptr %6, align 8
  %34 = getelementptr inbounds %struct.Dl_info, ptr %10, i32 0, i32 1
  %35 = load ptr, ptr %34, align 8
  %36 = call noundef i32 @_Z20pointer_delta_as_intIhEiPVKT_S2_(ptr noundef %33, ptr noundef %35)
  %37 = load ptr, ptr %9, align 8
  store i32 %36, ptr %37, align 4
  br label %38

38:                                               ; preds = %32, %29, %25
  store i1 true, ptr %5, align 1
  br label %47

39:                                               ; preds = %4
  %40 = load ptr, ptr %7, align 8
  %41 = getelementptr inbounds i8, ptr %40, i64 0
  store i8 0, ptr %41, align 1
  %42 = load ptr, ptr %9, align 8
  %43 = icmp ne ptr %42, null
  br i1 %43, label %44, label %46

44:                                               ; preds = %39
  %45 = load ptr, ptr %9, align 8
  store i32 -1, ptr %45, align 4
  br label %46

46:                                               ; preds = %44, %39
  store i1 false, ptr %5, align 1
  br label %47

47:                                               ; preds = %46, %38
  %48 = load i1, ptr %5, align 1
  ret i1 %48
}

; Function Attrs: mustprogress nounwind uwtable
define hidden void @_ZN2os8jvm_pathEPci(ptr noundef %0, i32 noundef %1) #1 align 2 {
  %3 = alloca ptr, align 8
  %4 = alloca i32, align 4
  %5 = alloca [4096 x i8], align 16
  %6 = alloca i8, align 1
  %7 = alloca ptr, align 8
  %8 = alloca ptr, align 8
  %9 = alloca i32, align 4
  %10 = alloca ptr, align 8
  %11 = alloca ptr, align 8
  %12 = alloca i32, align 4
  store ptr %0, ptr %3, align 8
  store i32 %1, ptr %4, align 4
  %13 = load i32, ptr %4, align 4
  %14 = icmp slt i32 %13, 4096
  br i1 %14, label %15, label %18

15:                                               ; preds = %2
  %16 = load ptr, ptr %3, align 8
  %17 = getelementptr inbounds i8, ptr %16, i64 0
  store i8 0, ptr %17, align 1
  br label %172

18:                                               ; preds = %2
  %19 = load i8, ptr @_ZL14saved_jvm_path, align 16
  %20 = sext i8 %19 to i32
  %21 = icmp ne i32 %20, 0
  br i1 %21, label %22, label %25

22:                                               ; preds = %18
  %23 = load ptr, ptr %3, align 8
  %24 = call ptr @strcpy(ptr noundef %23, ptr noundef @_ZL14saved_jvm_path) #12
  br label %172

25:                                               ; preds = %18
  %26 = getelementptr inbounds [4096 x i8], ptr %5, i64 0, i64 0
  store i8 0, ptr %26, align 16
  %27 = getelementptr inbounds [4096 x i8], ptr %5, i64 0, i64 0
  %28 = call noundef zeroext i1 @_ZN2os27dll_address_to_library_nameEPhPciPi(ptr noundef @_ZN2os8jvm_pathEPci, ptr noundef %27, i32 noundef 4096, ptr noundef null)
  %29 = zext i1 %28 to i8
  store i8 %29, ptr %6, align 1
  store ptr null, ptr %7, align 8
  %30 = load i8, ptr %6, align 1
  %31 = trunc i8 %30 to i1
  br i1 %31, label %32, label %43

32:                                               ; preds = %25
  %33 = getelementptr inbounds [4096 x i8], ptr %5, i64 0, i64 0
  %34 = load i8, ptr %33, align 16
  %35 = sext i8 %34 to i32
  %36 = icmp ne i32 %35, 0
  br i1 %36, label %37, label %43

37:                                               ; preds = %32
  %38 = getelementptr inbounds [4096 x i8], ptr %5, i64 0, i64 0
  %39 = load ptr, ptr %3, align 8
  %40 = load i32, ptr %4, align 4
  %41 = sext i32 %40 to i64
  %42 = call noundef ptr @_ZN2os5Posix8realpathEPKcPcm(ptr noundef %38, ptr noundef %39, i64 noundef %41)
  store ptr %42, ptr %7, align 8
  br label %43

43:                                               ; preds = %37, %32, %25
  %44 = load ptr, ptr %7, align 8
  %45 = icmp eq ptr %44, null
  br i1 %45, label %46, label %47

46:                                               ; preds = %43
  br label %172

47:                                               ; preds = %43
  %48 = call noundef zeroext i1 @_ZN9Arguments27sun_java_launcher_is_altjvmEv()
  br i1 %48, label %49, label %169

49:                                               ; preds = %47
  %50 = load ptr, ptr %3, align 8
  %51 = load ptr, ptr %3, align 8
  %52 = call i64 @strlen(ptr noundef %51) #13
  %53 = getelementptr inbounds i8, ptr %50, i64 %52
  %54 = getelementptr inbounds i8, ptr %53, i64 -1
  store ptr %54, ptr %8, align 8
  store i32 0, ptr %9, align 4
  br label %55

55:                                               ; preds = %83, %49
  %56 = load ptr, ptr %8, align 8
  %57 = load ptr, ptr %3, align 8
  %58 = icmp ugt ptr %56, %57
  br i1 %58, label %59, label %62

59:                                               ; preds = %55
  %60 = load i32, ptr %9, align 4
  %61 = icmp slt i32 %60, 5
  br label %62

62:                                               ; preds = %59, %55
  %63 = phi i1 [ false, %55 ], [ %61, %59 ]
  br i1 %63, label %64, label %86

64:                                               ; preds = %62
  %65 = load ptr, ptr %8, align 8
  %66 = getelementptr inbounds i8, ptr %65, i32 -1
  store ptr %66, ptr %8, align 8
  br label %67

67:                                               ; preds = %79, %64
  %68 = load ptr, ptr %8, align 8
  %69 = load ptr, ptr %3, align 8
  %70 = icmp ugt ptr %68, %69
  br i1 %70, label %71, label %76

71:                                               ; preds = %67
  %72 = load ptr, ptr %8, align 8
  %73 = load i8, ptr %72, align 1
  %74 = sext i8 %73 to i32
  %75 = icmp ne i32 %74, 47
  br label %76

76:                                               ; preds = %71, %67
  %77 = phi i1 [ false, %67 ], [ %75, %71 ]
  br i1 %77, label %78, label %82

78:                                               ; preds = %76
  br label %79

79:                                               ; preds = %78
  %80 = load ptr, ptr %8, align 8
  %81 = getelementptr inbounds i8, ptr %80, i32 -1
  store ptr %81, ptr %8, align 8
  br label %67, !llvm.loop !11

82:                                               ; preds = %76
  br label %83

83:                                               ; preds = %82
  %84 = load i32, ptr %9, align 4
  %85 = add nsw i32 %84, 1
  store i32 %85, ptr %9, align 4
  br label %55, !llvm.loop !12

86:                                               ; preds = %62
  %87 = load ptr, ptr %8, align 8
  %88 = call i32 @strncmp(ptr noundef %87, ptr noundef @.str.179, i64 noundef 9) #13
  %89 = icmp ne i32 %88, 0
  br i1 %89, label %90, label %168

90:                                               ; preds = %86
  %91 = call ptr @getenv(ptr noundef @.str.180) #12
  store ptr %91, ptr %10, align 8
  %92 = load ptr, ptr %10, align 8
  %93 = icmp ne ptr %92, null
  br i1 %93, label %94, label %167

94:                                               ; preds = %90
  %95 = load ptr, ptr %10, align 8
  %96 = getelementptr inbounds i8, ptr %95, i64 0
  %97 = load i8, ptr %96, align 1
  %98 = sext i8 %97 to i32
  %99 = icmp ne i32 %98, 0
  br i1 %99, label %100, label %167

100:                                              ; preds = %94
  %101 = load ptr, ptr %3, align 8
  %102 = call noundef ptr @strrchr(ptr noundef %101, i32 noundef 47) #13
  store ptr %102, ptr %8, align 8
  %103 = load ptr, ptr %8, align 8
  %104 = icmp eq ptr %103, null
  br i1 %104, label %105, label %106

105:                                              ; preds = %100
  br label %172

106:                                              ; preds = %100
  %107 = load ptr, ptr %10, align 8
  %108 = load ptr, ptr %3, align 8
  %109 = load i32, ptr %4, align 4
  %110 = sext i32 %109 to i64
  %111 = call noundef ptr @_ZN2os5Posix8realpathEPKcPcm(ptr noundef %107, ptr noundef %108, i64 noundef %110)
  store ptr %111, ptr %7, align 8
  %112 = load ptr, ptr %7, align 8
  %113 = icmp eq ptr %112, null
  br i1 %113, label %114, label %115

114:                                              ; preds = %106
  br label %172

115:                                              ; preds = %106
  %116 = load ptr, ptr %3, align 8
  %117 = call i64 @strlen(ptr noundef %116) #13
  %118 = call noundef i32 @_Z12checked_castIimET_T0_(i64 noundef %117)
  store i32 %118, ptr %12, align 4
  %119 = load ptr, ptr %3, align 8
  %120 = load i32, ptr %12, align 4
  %121 = sext i32 %120 to i64
  %122 = getelementptr inbounds i8, ptr %119, i64 %121
  store ptr %122, ptr %11, align 8
  %123 = load ptr, ptr %11, align 8
  %124 = load i32, ptr %4, align 4
  %125 = load i32, ptr %12, align 4
  %126 = sub nsw i32 %124, %125
  %127 = sext i32 %126 to i64
  %128 = call noundef i32 (ptr, i64, ptr, ...) @_ZN2os8snprintfEPcmPKcz(ptr noundef %123, i64 noundef %127, ptr noundef @.str.181)
  %129 = load ptr, ptr %3, align 8
  %130 = call i32 @access(ptr noundef %129, i32 noundef 0) #12
  %131 = icmp ne i32 0, %130
  br i1 %131, label %132, label %139

132:                                              ; preds = %115
  %133 = load ptr, ptr %11, align 8
  %134 = load i32, ptr %4, align 4
  %135 = load i32, ptr %12, align 4
  %136 = sub nsw i32 %134, %135
  %137 = sext i32 %136 to i64
  %138 = call noundef i32 (ptr, i64, ptr, ...) @_ZN2os8snprintfEPcmPKcz(ptr noundef %133, i64 noundef %137, ptr noundef @.str.182)
  br label %139

139:                                              ; preds = %132, %115
  %140 = load ptr, ptr %3, align 8
  %141 = call i32 @access(ptr noundef %140, i32 noundef 0) #12
  %142 = icmp eq i32 0, %141
  br i1 %142, label %143, label %156

143:                                              ; preds = %139
  %144 = load ptr, ptr %3, align 8
  %145 = call i64 @strlen(ptr noundef %144) #13
  %146 = trunc i64 %145 to i32
  store i32 %146, ptr %12, align 4
  %147 = load ptr, ptr %3, align 8
  %148 = load i32, ptr %12, align 4
  %149 = sext i32 %148 to i64
  %150 = getelementptr inbounds i8, ptr %147, i64 %149
  %151 = load i32, ptr %4, align 4
  %152 = load i32, ptr %12, align 4
  %153 = sub nsw i32 %151, %152
  %154 = sext i32 %153 to i64
  %155 = call noundef i32 (ptr, i64, ptr, ...) @_ZN2os8snprintfEPcmPKcz(ptr noundef %150, i64 noundef %154, ptr noundef @.str.183)
  br label %166

156:                                              ; preds = %139
  %157 = getelementptr inbounds [4096 x i8], ptr %5, i64 0, i64 0
  %158 = load ptr, ptr %3, align 8
  %159 = load i32, ptr %4, align 4
  %160 = sext i32 %159 to i64
  %161 = call noundef ptr @_ZN2os5Posix8realpathEPKcPcm(ptr noundef %157, ptr noundef %158, i64 noundef %160)
  store ptr %161, ptr %7, align 8
  %162 = load ptr, ptr %7, align 8
  %163 = icmp eq ptr %162, null
  br i1 %163, label %164, label %165

164:                                              ; preds = %156
  br label %172

165:                                              ; preds = %156
  br label %166

166:                                              ; preds = %165, %143
  br label %167

167:                                              ; preds = %166, %94, %90
  br label %168

168:                                              ; preds = %167, %86
  br label %169

169:                                              ; preds = %168, %47
  %170 = load ptr, ptr %3, align 8
  %171 = call ptr @strncpy(ptr noundef @_ZL14saved_jvm_path, ptr noundef %170, i64 noundef 4096) #12
  store i8 0, ptr getelementptr inbounds ([4096 x i8], ptr @_ZL14saved_jvm_path, i64 0, i64 4095), align 1
  br label %172

172:                                              ; preds = %169, %164, %114, %105, %46, %22, %15
  ret void
}