; Function Attrs: mustprogress nounwind uwtable
define hidden void @_ZN2os8jvm_pathEPci(ptr noundef %0, i32 noundef %1) #0 align 2 {
  %3 = alloca %struct.Dl_info, align 8
  %4 = alloca [4096 x i8], align 16
  %5 = icmp slt i32 %1, 4096
  br i1 %5, label %6, label %7

6:                                                ; preds = %2
  store i8 0, ptr %0, align 1
  br label %.critedge60

7:                                                ; preds = %2
  %8 = load i8, ptr @_ZL14saved_jvm_path, align 16
  %.not = icmp eq i8 %8, 0
  br i1 %.not, label %11, label %9

9:                                                ; preds = %7
  %10 = tail call ptr @strcpy(ptr noundef nonnull dereferenceable(1) %0, ptr noundef nonnull dereferenceable(1) @_ZL14saved_jvm_path) #26
  br label %.critedge60

11:                                               ; preds = %7
  store i8 0, ptr %4, align 16
  call void @llvm.lifetime.start.p0(i64 32, ptr nonnull %3)
  %12 = call i32 @dladdr(ptr noundef nonnull @_ZN2os8jvm_pathEPci, ptr noundef nonnull %3) #26
  %.not.i.not = icmp eq i32 %12, 0
  br i1 %.not.i.not, label %_ZN2os27dll_address_to_library_nameEPhPciPi.exit.thread, label %13

13:                                               ; preds = %11
  %14 = load ptr, ptr %3, align 8
  %.not14.i = icmp eq ptr %14, null
  br i1 %.not14.i, label %_ZN2os27dll_address_to_library_nameEPhPciPi.exit.thread66, label %_ZN2os27dll_address_to_library_nameEPhPciPi.exit

_ZN2os27dll_address_to_library_nameEPhPciPi.exit.thread66: ; preds = %13
  call void @llvm.lifetime.end.p0(i64 32, ptr nonnull %3)
  br label %.critedge60

_ZN2os27dll_address_to_library_nameEPhPciPi.exit.thread: ; preds = %11
  call void @llvm.lifetime.end.p0(i64 32, ptr nonnull %3)
  br label %.critedge60

_ZN2os27dll_address_to_library_nameEPhPciPi.exit: ; preds = %13
  %15 = call i32 (ptr, i64, ptr, ...) @jio_snprintf(ptr noundef nonnull %4, i64 noundef 4096, ptr noundef nonnull @.str.46, ptr noundef nonnull %14) #26
  %.pre = load i8, ptr %4, align 16
  %16 = icmp eq i8 %.pre, 0
  call void @llvm.lifetime.end.p0(i64 32, ptr nonnull %3)
  br i1 %16, label %.critedge60, label %17

17:                                               ; preds = %_ZN2os27dll_address_to_library_nameEPhPciPi.exit
  %18 = zext nneg i32 %1 to i64
  %19 = call noundef ptr @_ZN2os5Posix8realpathEPKcPcm(ptr noundef nonnull %4, ptr noundef %0, i64 noundef %18) #26
  %20 = icmp eq ptr %19, null
  br i1 %20, label %.critedge60, label %21

21:                                               ; preds = %17
  %22 = call noundef zeroext i1 @_ZN9Arguments27sun_java_launcher_is_altjvmEv() #26
  br i1 %22, label %23, label %70

23:                                               ; preds = %21
  %24 = call i64 @strlen(ptr noundef nonnull dereferenceable(1) %0) #27
  %25 = getelementptr inbounds i8, ptr %0, i64 %24
  %26 = getelementptr inbounds i8, ptr %25, i64 -1
  %27 = icmp ugt ptr %26, %0
  br i1 %27, label %.preheader, label %._crit_edge

.preheader:                                       ; preds = %23, %.critedge
  %.04965 = phi ptr [ %.1, %.critedge ], [ %26, %23 ]
  %.05064 = phi i32 [ %32, %.critedge ], [ 0, %23 ]
  br label %28

28:                                               ; preds = %.preheader, %30
  %.049.pn = phi ptr [ %.1, %30 ], [ %.04965, %.preheader ]
  %.1 = getelementptr inbounds i8, ptr %.049.pn, i64 -1
  %29 = icmp ugt ptr %.1, %0
  br i1 %29, label %30, label %._crit_edge

30:                                               ; preds = %28
  %31 = load i8, ptr %.1, align 1
  %.not58 = icmp eq i8 %31, 47
  br i1 %.not58, label %.critedge, label %28, !llvm.loop !10

.critedge:                                        ; preds = %30
  %32 = add nuw nsw i32 %.05064, 1
  %33 = icmp ult i32 %.05064, 4
  br i1 %33, label %.preheader, label %._crit_edge, !llvm.loop !11

._crit_edge:                                      ; preds = %.critedge, %28, %23
  %.049.lcssa = phi ptr [ %26, %23 ], [ %.1, %28 ], [ %.1, %.critedge ]
  %34 = call i32 @strncmp(ptr noundef nonnull dereferenceable(1) %.049.lcssa, ptr noundef nonnull dereferenceable(10) @.str.179, i64 noundef 9) #27
  %.not54 = icmp eq i32 %34, 0
  br i1 %.not54, label %70, label %35

35:                                               ; preds = %._crit_edge
  %36 = call ptr @getenv(ptr noundef nonnull @.str.180) #26
  %.not55 = icmp eq ptr %36, null
  br i1 %.not55, label %70, label %37

37:                                               ; preds = %35
  %38 = load i8, ptr %36, align 1
  %.not56 = icmp eq i8 %38, 0
  br i1 %.not56, label %70, label %39

39:                                               ; preds = %37
  %40 = call noundef ptr @strrchr(ptr noundef nonnull dereferenceable(1) %0, i32 noundef 47) #27
  %41 = icmp eq ptr %40, null
  br i1 %41, label %.critedge60, label %42

42:                                               ; preds = %39
  %43 = call noundef ptr @_ZN2os5Posix8realpathEPKcPcm(ptr noundef nonnull %36, ptr noundef %0, i64 noundef %18) #26
  %44 = icmp eq ptr %43, null
  br i1 %44, label %.critedge60, label %45

45:                                               ; preds = %42
  %46 = call i64 @strlen(ptr noundef nonnull dereferenceable(1) %0) #27
  %47 = trunc i64 %46 to i32
  %sext63 = shl i64 %46, 32
  %48 = ashr exact i64 %sext63, 32
  %49 = getelementptr inbounds i8, ptr %0, i64 %48
  %50 = sub nsw i32 %1, %47
  %51 = sext i32 %50 to i64
  %52 = call noundef i32 (ptr, i64, ptr, ...) @_ZN2os8snprintfEPcmPKcz(ptr noundef %49, i64 noundef %51, ptr noundef nonnull @.str.181) #26
  %53 = call i32 @access(ptr noundef %0, i32 noundef 0) #26
  %.not57 = icmp eq i32 %53, 0
  br i1 %.not57, label %56, label %54

54:                                               ; preds = %45
  %55 = call noundef i32 (ptr, i64, ptr, ...) @_ZN2os8snprintfEPcmPKcz(ptr noundef %49, i64 noundef %51, ptr noundef nonnull @.str.182) #26
  br label %56

56:                                               ; preds = %54, %45
  %57 = call i32 @access(ptr noundef %0, i32 noundef 0) #26
  %58 = icmp eq i32 %57, 0
  br i1 %58, label %59, label %67

59:                                               ; preds = %56
  %60 = call i64 @strlen(ptr noundef nonnull dereferenceable(1) %0) #27
  %61 = trunc i64 %60 to i32
  %sext = shl i64 %60, 32
  %62 = ashr exact i64 %sext, 32
  %63 = getelementptr inbounds i8, ptr %0, i64 %62
  %64 = sub nsw i32 %1, %61
  %65 = sext i32 %64 to i64
  %66 = call noundef i32 (ptr, i64, ptr, ...) @_ZN2os8snprintfEPcmPKcz(ptr noundef %63, i64 noundef %65, ptr noundef nonnull @.str.183) #26
  br label %70

67:                                               ; preds = %56
  %68 = call noundef ptr @_ZN2os5Posix8realpathEPKcPcm(ptr noundef nonnull %4, ptr noundef %0, i64 noundef %18) #26
  %69 = icmp eq ptr %68, null
  br i1 %69, label %.critedge60, label %70

70:                                               ; preds = %._crit_edge, %59, %67, %37, %35, %21
  %71 = call ptr @strncpy(ptr noundef nonnull dereferenceable(1) @_ZL14saved_jvm_path, ptr noundef nonnull dereferenceable(1) %0, i64 noundef 4096) #26
  store i8 0, ptr getelementptr inbounds (i8, ptr @_ZL14saved_jvm_path, i64 4095), align 1
  br label %.critedge60

.critedge60:                                      ; preds = %_ZN2os27dll_address_to_library_nameEPhPciPi.exit.thread66, %_ZN2os27dll_address_to_library_nameEPhPciPi.exit.thread, %_ZN2os27dll_address_to_library_nameEPhPciPi.exit, %67, %42, %39, %17, %70, %9, %6
  ret void
}